; Function Attrs: mustprogress uwtable
define void @_ZN6casadi10SymbolicQrC2ERKNSt7__cxx1112basic_stringIcSt11char_traitsIcESaIcEEERKNS_8SparsityE(ptr noundef nonnull align 8 dereferenceable(256) %0, ptr noundef nonnull align 8 dereferenceable(32) %1, ptr noundef nonnull align 8 dereferenceable(8) %2) unnamed_addr #4 align 2 personality ptr @__gxx_personality_v0 {
  tail call void @_ZN6casadi14LinsolInternalC2ERKNSt7__cxx1112basic_stringIcSt11char_traitsIcESaIcEEERKNS_8SparsityE(ptr noundef nonnull align 8 dereferenceable(184) %0, ptr noundef nonnull align 8 dereferenceable(32) %1, ptr noundef nonnull align 8 dereferenceable(8) %2)
  store ptr getelementptr inbounds ({ [27 x ptr], [3 x ptr] }, ptr @_ZTVN6casadi10SymbolicQrE, i64 0, i32 0, i64 2), ptr %0, align 8
  %4 = getelementptr inbounds i8, ptr %0, i64 168
  store ptr getelementptr inbounds ({ [27 x ptr], [3 x ptr] }, ptr @_ZTVN6casadi10SymbolicQrE, i64 0, i32 1, i64 2), ptr %4, align 8
  %5 = getelementptr inbounds i8, ptr %0, i64 184
  invoke void @_ZN6casadi8FunctionC1Ev(ptr noundef nonnull align 8 dereferenceable(8) %5)
          to label %6 unwind label %16

6:                                                ; preds = %3
  %7 = getelementptr inbounds i8, ptr %0, i64 192
  invoke void @_ZN6casadi8FunctionC1Ev(ptr noundef nonnull align 8 dereferenceable(8) %7)
          to label %8 unwind label %18

8:                                                ; preds = %6
  %9 = getelementptr inbounds i8, ptr %0, i64 200
  invoke void @_ZN6casadi8FunctionC1Ev(ptr noundef nonnull align 8 dereferenceable(8) %9)
          to label %10 unwind label %20

10:                                               ; preds = %8
  %11 = getelementptr inbounds i8, ptr %0, i64 216
  store i32 0, ptr %11, align 8
  %12 = getelementptr inbounds i8, ptr %0, i64 224
  store ptr null, ptr %12, align 8
  %13 = getelementptr inbounds i8, ptr %0, i64 232
  store ptr %11, ptr %13, align 8
  %14 = getelementptr inbounds i8, ptr %0, i64 240
  store ptr %11, ptr %14, align 8
  %15 = getelementptr inbounds i8, ptr %0, i64 248
  store i64 0, ptr %15, align 8
  ret void

16:                                               ; preds = %3
  %17 = landingpad { ptr, i32 }
          cleanup
  br label %23

18:                                               ; preds = %6
  %19 = landingpad { ptr, i32 }
          cleanup
  br label %22

20:                                               ; preds = %8
  %21 = landingpad { ptr, i32 }
          cleanup
  tail call void @_ZN6casadi8FunctionD1Ev(ptr noundef nonnull align 8 dereferenceable(8) %7) #18
  br label %22

22:                                               ; preds = %20, %18
  %.pn = phi { ptr, i32 } [ %21, %20 ], [ %19, %18 ]
  tail call void @_ZN6casadi8FunctionD1Ev(ptr noundef nonnull align 8 dereferenceable(8) %5) #18
  br label %23

23:                                               ; preds = %22, %16
  %.pn.pn = phi { ptr, i32 } [ %.pn, %22 ], [ %17, %16 ]
  tail call void @_ZN6casadi14LinsolInternalD2Ev(ptr noundef nonnull align 8 dereferenceable(184) %0) #18
  resume { ptr, i32 } %.pn.pn
}